; ModuleID = '36/608.c'
source_filename = "36/608.c"
target datalayout = "e-m:e-p270:32:32-p271:32:32-p272:64:64-i64:64-f80:128-n8:16:32:64-S128"
target triple = "x86_64-pc-linux-gnu"

@.str = private unnamed_addr constant [5 x i8] c"%s%s\00", align 1
@.str.1 = private unnamed_addr constant [5 x i8] c"YES\0A\00", align 1
@.str.2 = private unnamed_addr constant [4 x i8] c"NO\0A\00", align 1

; Function Attrs: noinline nounwind uwtable
define dso_local void @main() #0 {
  %1 = alloca i32, align 4
  %2 = alloca i32, align 4
  %3 = alloca i32, align 4
  %4 = alloca [10 x i8], align 1
  %5 = alloca [10 x i8], align 1
  %6 = alloca i8, align 1
  %7 = getelementptr inbounds [10 x i8], [10 x i8]* %4, i64 0, i64 0
  %8 = getelementptr inbounds [10 x i8], [10 x i8]* %5, i64 0, i64 0
  %9 = call i32 (i8*, ...) @__isoc99_scanf(i8* getelementptr inbounds ([5 x i8], [5 x i8]* @.str, i64 0, i64 0), i8* %7, i8* %8)
  %10 = getelementptr inbounds [10 x i8], [10 x i8]* %4, i64 0, i64 0
  %11 = call i64 @strlen(i8* %10) #3
  %12 = trunc i64 %11 to i32
  store i32 %12, i32* %3, align 4
  store i32 1, i32* %2, align 4
  br label %13

13:                                               ; preds = %60, %0
  %14 = load i32, i32* %2, align 4
  %15 = load i32, i32* %3, align 4
  %16 = icmp slt i32 %14, %15
  br i1 %16, label %17, label %63

17:                                               ; preds = %13
  store i32 0, i32* %1, align 4
  br label %18

18:                                               ; preds = %56, %17
  %19 = load i32, i32* %1, align 4
  %20 = load i32, i32* %3, align 4
  %21 = load i32, i32* %2, align 4
  %22 = sub nsw i32 %20, %21
  %23 = icmp slt i32 %19, %22
  br i1 %23, label %24, label %59

24:                                               ; preds = %18
  %25 = load i32, i32* %1, align 4
  %26 = sext i32 %25 to i64
  %27 = getelementptr inbounds [10 x i8], [10 x i8]* %4, i64 0, i64 %26
  %28 = load i8, i8* %27, align 1
  %29 = sext i8 %28 to i32
  %30 = load i32, i32* %1, align 4
  %31 = add nsw i32 %30, 1
  %32 = sext i32 %31 to i64
  %33 = getelementptr inbounds [10 x i8], [10 x i8]* %4, i64 0, i64 %32
  %34 = load i8, i8* %33, align 1
  %35 = sext i8 %34 to i32
  %36 = icmp slt i32 %29, %35
  br i1 %36, label %37, label %55

37:                                               ; preds = %24
  %38 = load i32, i32* %1, align 4
  %39 = sext i32 %38 to i64
  %40 = getelementptr inbounds [10 x i8], [10 x i8]* %4, i64 0, i64 %39
  %41 = load i8, i8* %40, align 1
  store i8 %41, i8* %6, align 1
  %42 = load i32, i32* %1, align 4
  %43 = add nsw i32 %42, 1
  %44 = sext i32 %43 to i64
  %45 = getelementptr inbounds [10 x i8], [10 x i8]* %4, i64 0, i64 %44
  %46 = load i8, i8* %45, align 1
  %47 = load i32, i32* %1, align 4
  %48 = sext i32 %47 to i64
  %49 = getelementptr inbounds [10 x i8], [10 x i8]* %4, i64 0, i64 %48
  store i8 %46, i8* %49, align 1
  %50 = load i8, i8* %6, align 1
  %51 = load i32, i32* %1, align 4
  %52 = add nsw i32 %51, 1
  %53 = sext i32 %52 to i64
  %54 = getelementptr inbounds [10 x i8], [10 x i8]* %4, i64 0, i64 %53
  store i8 %50, i8* %54, align 1
  br label %55

55:                                               ; preds = %37, %24
  br label %56

56:                                               ; preds = %55
  %57 = load i32, i32* %1, align 4
  %58 = add nsw i32 %57, 1
  store i32 %58, i32* %1, align 4
  br label %18

59:                                               ; preds = %18
  br label %60

60:                                               ; preds = %59
  %61 = load i32, i32* %2, align 4
  %62 = add nsw i32 %61, 1
  store i32 %62, i32* %2, align 4
  br label %13

63:                                               ; preds = %13
  %64 = getelementptr inbounds [10 x i8], [10 x i8]* %5, i64 0, i64 0
  %65 = call i64 @strlen(i8* %64) #3
  %66 = trunc i64 %65 to i32
  store i32 %66, i32* %3, align 4
  store i32 1, i32* %2, align 4
  br label %67

67:                                               ; preds = %114, %63
  %68 = load i32, i32* %2, align 4
  %69 = load i32, i32* %3, align 4
  %70 = icmp slt i32 %68, %69
  br i1 %70, label %71, label %117

71:                                               ; preds = %67
  store i32 0, i32* %1, align 4
  br label %72

72:                                               ; preds = %110, %71
  %73 = load i32, i32* %1, align 4
  %74 = load i32, i32* %3, align 4
  %75 = load i32, i32* %2, align 4
  %76 = sub nsw i32 %74, %75
  %77 = icmp slt i32 %73, %76
  br i1 %77, label %78, label %113

78:                                               ; preds = %72
  %79 = load i32, i32* %1, align 4
  %80 = sext i32 %79 to i64
  %81 = getelementptr inbounds [10 x i8], [10 x i8]* %5, i64 0, i64 %80
  %82 = load i8, i8* %81, align 1
  %83 = sext i8 %82 to i32
  %84 = load i32, i32* %1, align 4
  %85 = add nsw i32 %84, 1
  %86 = sext i32 %85 to i64
  %87 = getelementptr inbounds [10 x i8], [10 x i8]* %5, i64 0, i64 %86
  %88 = load i8, i8* %87, align 1
  %89 = sext i8 %88 to i32
  %90 = icmp slt i32 %83, %89
  br i1 %90, label %91, label %109

91:                                               ; preds = %78
  %92 = load i32, i32* %1, align 4
  %93 = sext i32 %92 to i64
  %94 = getelementptr inbounds [10 x i8], [10 x i8]* %5, i64 0, i64 %93
  %95 = load i8, i8* %94, align 1
  store i8 %95, i8* %6, align 1
  %96 = load i32, i32* %1, align 4
  %97 = add nsw i32 %96, 1
  %98 = sext i32 %97 to i64
  %99 = getelementptr inbounds [10 x i8], [10 x i8]* %5, i64 0, i64 %98
  %100 = load i8, i8* %99, align 1
  %101 = load i32, i32* %1, align 4
  %102 = sext i32 %101 to i64
  %103 = getelementptr inbounds [10 x i8], [10 x i8]* %5, i64 0, i64 %102
  store i8 %100, i8* %103, align 1
  %104 = load i8, i8* %6, align 1
  %105 = load i32, i32* %1, align 4
  %106 = add nsw i32 %105, 1
  %107 = sext i32 %106 to i64
  %108 = getelementptr inbounds [10 x i8], [10 x i8]* %5, i64 0, i64 %107
  store i8 %104, i8* %108, align 1
  br label %109

109:                                              ; preds = %91, %78
  br label %110

110:                                              ; preds = %109
  %111 = load i32, i32* %1, align 4
  %112 = add nsw i32 %111, 1
  store i32 %112, i32* %1, align 4
  br label %72

113:                                              ; preds = %72
  br label %114

114:                                              ; preds = %113
  %115 = load i32, i32* %2, align 4
  %116 = add nsw i32 %115, 1
  store i32 %116, i32* %2, align 4
  br label %67

117:                                              ; preds = %67
  %118 = getelementptr inbounds [10 x i8], [10 x i8]* %4, i64 0, i64 0
  %119 = getelementptr inbounds [10 x i8], [10 x i8]* %5, i64 0, i64 0
  %120 = call i32 @strcmp(i8* %118, i8* %119) #3
  %121 = icmp eq i32 %120, 0
  br i1 %121, label %122, label %124

122:                                              ; preds = %117
  %123 = call i32 (i8*, ...) @printf(i8* getelementptr inbounds ([5 x i8], [5 x i8]* @.str.1, i64 0, i64 0))
  br label %126

124:                                              ; preds = %117
  %125 = call i32 (i8*, ...) @printf(i8* getelementptr inbounds ([4 x i8], [4 x i8]* @.str.2, i64 0, i64 0))
  br label %126

126:                                              ; preds = %124, %122
  ret void
}

declare dso_local i32 @__isoc99_scanf(i8*, ...) #1

; Function Attrs: nounwind readonly
declare dso_local i64 @strlen(i8*) #2

; Function Attrs: nounwind readonly
declare dso_local i32 @strcmp(i8*, i8*) #2

declare dso_local i32 @printf(i8*, ...) #1


!llvm.module.flags = !{!0}
!llvm.ident = !{!1}

!0 = !{i32 1, !"wchar_size", i32 4}
!1 = !{!"clang version 10.0.0-4ubuntu1 "}
